(lp0
ccopy_reg
_reconstructor
p1
(csklearn.linear_model.base
LinearRegression
p2
c__builtin__
object
p3
Ntp4
Rp5
(dp6
S'normalize'
p7
I00
sS'n_jobs'
p8
I1
sS'rank_'
p9
I1
sS'fit_intercept'
p10
I01
sS'_residues'
p11
cnumpy.core.multiarray
scalar
p12
(cnumpy
dtype
p13
(S'f8'
p14
I0
I1
tp15
Rp16
(I3
S'<'
p17
NNNI-1
I-1
I0
tp18
bS'\xba\xee\xce\xb5\xa4\xb3\x9b@'
p19
tp20
Rp21
sS'coef_'
p22
cnumpy.core.multiarray
_reconstruct
p23
(cnumpy
ndarray
p24
(I0
tp25
S'b'
p26
tp27
Rp28
(I1
(L1L
tp29
g16
I00
S'I\x83\xed\xa4\x87\xdbs\xc0'
p30
tp31
bsS'_sklearn_version'
p32
S'0.19.0'
p33
sS'copy_X'
p34
I01
sS'intercept_'
p35
g12
(g16
S'\xb0\xed\xf3\x90T\xa39@'
p36
tp37
Rp38
sS'singular_'
p39
g23
(g24
(I0
tp40
g26
tp41
Rp42
(I1
(L1L
tp43
g16
I00
S'\xc9>$\xdd\xcdw\xd4?'
p44
tp45
bsba(lp46
g12
(g13
(S'S10'
p47
I0
I1
tp48
Rp49
(I3
S'|'
p50
NNNI10
I1
I0
tp51
bS'Log(R/pan)'
p52
tp53
Rp54
aa.