(lp0
ccopy_reg
_reconstructor
p1
(csklearn.linear_model.base
LinearRegression
p2
c__builtin__
object
p3
Ntp4
Rp5
(dp6
S'normalize'
p7
I00
sS'n_jobs'
p8
I1
sS'rank_'
p9
I24
sS'fit_intercept'
p10
I01
sS'_residues'
p11
cnumpy.core.multiarray
scalar
p12
(cnumpy
dtype
p13
(S'f8'
p14
I0
I1
tp15
Rp16
(I3
S'<'
p17
NNNI-1
I-1
I0
tp18
bS'\xf9\x9b\xb1\xb6\xbe\xa5\x7f@'
p19
tp20
Rp21
sS'coef_'
p22
cnumpy.core.multiarray
_reconstruct
p23
(cnumpy
ndarray
p24
(I0
tp25
S'b'
p26
tp27
Rp28
(I1
(L24L
tp29
g16
I00
S'\x1a<\xba\xcf\xa6\xd2o\xc0:\xc6\xe8%\x81Kf\xc0\xdd\xbd32U\xd0V@=\x15<\'\x82\x1c2\xc0\xd4r\xe1\xe9\xab\xabI@\xa9\xdc\xed\xe8\xf4u%@4a\xce\xca\xd4\xa2\t\xc0\xd0\x91M\x94\x80\xb1\xe6\xbf\xc4\x97\xc9\xe8\xf4\xf7\xf0?\xc03F\xbbp\x94\xd0\xbf\xc4\xf7\xcbf\xe7%K\xc0\x163\xa7\x8da\x90\x16\xc0@&\xdf\x05e.\xf7?x\xe3Z\x19\xb0\xdb\x01\xc0\x00\x80\xb1+p>\x85?"\xf4;\x9c\xc9\xb3\x1d@\xf0\xdd\\\xa1\xed\x10\xf1?\x18Z\xd4F\xa4\x82\x12@d\xba\xfds\xd9\x8f\x19@\xfc%\xbf\x93J\x17\t@?0\xd4Wz=$\xc0L\xfa(\x82\x1e\xdd\x1a\xc0\xc0\x9a\'\xc2B\x94\x03@\x08Bb\xb8\xa0V\x11\xc0'
p30
tp31
bsS'_sklearn_version'
p32
S'0.19.0'
p33
sS'copy_X'
p34
I01
sS'intercept_'
p35
g12
(g16
S"\xb8'\x9e\x98GMX@"
p36
tp37
Rp38
sS'singular_'
p39
g23
(g24
(I0
tp40
g26
tp41
Rp42
(I1
(L24L
tp43
g16
I00
S',\xbd\xe4\x8f\x86\xb6\x80@\x80\'{-+\nR@GS\xdc/\xfb{;@!\x86\xa7]U\xa8+@\x8fDj\xe6\x08V&@\x87N\xec>\xf5&!@\xd4vt\xc2\xcd\x06\x1b@\xfe\x0fp\xc9\xcc^\x14@\x0b\xacpxn\xcf\x0e@\xb4\x02\xc7\xf9\xd7S\t@\xb9\xde\x1b;\xef;\x04@\xac0\x04T\x19\xec\x01@\x88,M9\xa5\xdf\xfa?1\xe8\x8d\xf1\xfaA\xf9?\xc99\xcd01\xea\xf1?#\xb9\xa5\xc9"8\xec?kj6\xa7\x90\xae\xe6?\x8d\xf9\xd6\x90\x96D\xe4?\x97;(\xf4\xc0\x19\xd0?K#\xc8\xe2\x8d\x03\xc9?s\x8f\xe8\xa9\xb2\xce\xc4?\xcd\x9301q\xeb\xc1?@!\xb8\xb3o\x1b\xbe?\xe3"+u\x90q\xb7?'
p44
tp45
bsba(lp46
g12
(g13
(S'S10'
p47
I0
I1
tp48
Rp49
(I3
S'|'
p50
NNNI10
I1
I0
tp51
bS'Log(R/pan)'
p52
tp53
Rp54
ag12
(g13
(S'S13'
p55
I0
I1
tp56
Rp57
(I3
S'|'
p58
NNNI13
I1
I0
tp59
bS'Std(pan/NIR2)'
p60
tp61
Rp62
ag12
(g13
(S'S8'
p63
I0
I1
tp64
Rp65
(I3
S'|'
p66
NNNI8
I1
I0
tp67
bS'Std(C/R)'
p68
tp69
Rp70
ag12
(g13
(S'S6'
p71
I0
I1
tp72
Rp73
(I3
S'|'
p74
NNNI6
I1
I0
tp75
bS'Log(B)'
p76
tp77
Rp78
ag12
(g13
(S'S9'
p79
I0
I1
tp80
Rp81
(I3
S'|'
p82
NNNI9
I1
I0
tp83
bS'Std(C/RE)'
p84
tp85
Rp86
ag12
(g13
(S'S11'
p87
I0
I1
tp88
Rp89
(I3
S'|'
p90
NNNI11
I1
I0
tp91
bS'Std(RE/NIR)'
p92
tp93
Rp94
ag12
(g13
(S'S14'
p95
I0
I1
tp96
Rp97
(I3
S'|'
p98
NNNI14
I1
I0
tp99
bS'Entropy(NIR/Y)'
p100
tp101
Rp102
ag12
(g13
(S'S8'
p103
I0
I1
tp104
Rp105
(I3
S'|'
p106
NNNI8
I1
I0
tp107
bS'Std(R/Y)'
p108
tp109
Rp110
ag12
(g13
(S'S8'
p111
I0
I1
tp112
Rp113
(I3
S'|'
p114
NNNI8
I1
I0
tp115
bS'Std(C/Y)'
p116
tp117
Rp118
ag12
(g13
(S'S9'
p119
I0
I1
tp120
Rp121
(I3
S'|'
p122
NNNI9
I1
I0
tp123
bS'(NIR/Y)^2'
p124
tp125
Rp126
ag12
(g13
(S'S8'
p127
I0
I1
tp128
Rp129
(I3
S'|'
p130
NNNI8
I1
I0
tp131
bS'Std(B/C)'
p132
tp133
Rp134
ag12
(g13
(S'S12'
p135
I0
I1
tp136
Rp137
(I3
S'|'
p138
NNNI12
I1
I0
tp139
bS'Entropy(G/C)'
p140
tp141
Rp142
ag12
(g13
(S'S13'
p143
I0
I1
tp144
Rp145
(I3
S'|'
p146
NNNI13
I1
I0
tp147
bS'Entropy(SAVI)'
p148
tp149
Rp150
ag12
(g13
(S'S16'
p151
I0
I1
tp152
Rp153
(I3
S'|'
p154
NNNI16
I1
I0
tp155
bS'Entropy(RE/NIR2)'
p156
tp157
Rp158
ag12
(g13
(S'S6'
p159
I0
I1
tp160
Rp161
(I3
S'|'
p162
NNNI6
I1
I0
tp163
bS'Std(B)'
p164
tp165
Rp166
ag12
(g13
(S'S14'
p167
I0
I1
tp168
Rp169
(I3
S'|'
p170
NNNI14
I1
I0
tp171
bS'Entropy(B/NIR)'
p172
tp173
Rp174
ag12
(g13
(S'S12'
p175
I0
I1
tp176
Rp177
(I3
S'|'
p178
NNNI12
I1
I0
tp179
bS'Entropy(Y/R)'
p180
tp181
Rp182
ag12
(g13
(S'S18'
p183
I0
I1
tp184
Rp185
(I3
S'|'
p186
NNNI18
I1
I0
tp187
bS'Entropy(SAVI_NIR2)'
p188
tp189
Rp190
ag12
(g13
(S'S11'
p191
I0
I1
tp192
Rp193
(I3
S'|'
p194
NNNI11
I1
I0
tp195
bS'Std(NIR2/C)'
p196
tp197
Rp198
ag12
(g13
(S'S15'
p199
I0
I1
tp200
Rp201
(I3
S'|'
p202
NNNI15
I1
I0
tp203
bS'Entropy(NIR2/Y)'
p204
tp205
Rp206
ag12
(g13
(S'S9'
p207
I0
I1
tp208
Rp209
(I3
S'|'
p210
NNNI9
I1
I0
tp211
bS'Std(RE/R)'
p212
tp213
Rp214
ag12
(g13
(S'S16'
p215
I0
I1
tp216
Rp217
(I3
S'|'
p218
NNNI16
I1
I0
tp219
bS'Entropy(pan/NIR)'
p220
tp221
Rp222
ag12
(g13
(S'S15'
p223
I0
I1
tp224
Rp225
(I3
S'|'
p226
NNNI15
I1
I0
tp227
bS'Entropy(NIR2/C)'
p228
tp229
Rp230
ag12
(g13
(S'S13'
p231
I0
I1
tp232
Rp233
(I3
S'|'
p234
NNNI13
I1
I0
tp235
bS'Entropy(RE/B)'
p236
tp237
Rp238
aa.